target datalayout = "e-m:e-p270:32:32-p271:32:32-p272:64:64-i64:64-i128:128-f80:128-n8:16:32:64-S128"
target triple = "x86_64-pc-linux-gnu"

@.str = private unnamed_addr constant [30 x i8] c"Assertion %s failed at %s:%d\0A\00", align 1
@.str.2 = private unnamed_addr constant [29 x i8] c"libavcodec/vvc/intra_utils.c\00", align 1
@.str.3 = private unnamed_addr constant [21 x i8] c"mode < INTRA_LT_CCLM\00", align 1

; Function Attrs: nounwind uwtable
define i32 @ff_vvc_need_pdpc(i32 noundef %0, i32 noundef %1, i8 noundef zeroext %2, i32 noundef %3, i32 noundef %4) #0 {
  %6 = alloca i32, align 4
  %7 = alloca i32, align 4
  %8 = alloca i32, align 4
  %9 = alloca i8, align 1
  %10 = alloca i32, align 4
  %11 = alloca i32, align 4
  %12 = alloca i32, align 4
  %13 = alloca i32, align 4
  store i32 %0, ptr %7, align 4, !tbaa !4
  store i32 %1, ptr %8, align 4, !tbaa !4
  store i8 %2, ptr %9, align 1, !tbaa !8
  store i32 %3, ptr %10, align 4, !tbaa !4
  store i32 %4, ptr %11, align 4, !tbaa !4
  br label %14

14:                                               ; preds = %5
  %15 = load i32, ptr %10, align 4, !tbaa !4
  %16 = icmp slt i32 %15, 81
  br i1 %16, label %18, label %17

17:                                               ; preds = %14
  call void (ptr, i32, ptr, ...) @av_log(ptr noundef null, i32 noundef 0, ptr noundef @.str, ptr noundef @.str.3, ptr noundef @.str.2, i32 noundef 63)
  call void @abort() #7
  unreachable

18:                                               ; preds = %14
  br label %19

19:                                               ; preds = %18
  %20 = load i32, ptr %7, align 4, !tbaa !4
  %21 = icmp sge i32 %20, 4
  br i1 %21, label %22, label %60

22:                                               ; preds = %19
  %23 = load i32, ptr %8, align 4, !tbaa !4
  %24 = icmp sge i32 %23, 4
  br i1 %24, label %25, label %60

25:                                               ; preds = %22
  %26 = load i32, ptr %11, align 4, !tbaa !4
  %27 = icmp ne i32 %26, 0
  br i1 %27, label %60, label %28

28:                                               ; preds = %25
  %29 = load i8, ptr %9, align 1, !tbaa !8
  %30 = icmp ne i8 %29, 0
  br i1 %30, label %60, label %31

31:                                               ; preds = %28
  call void @llvm.lifetime.start.p0(i64 4, ptr %12) #6
  %32 = load i32, ptr %10, align 4, !tbaa !4
  %33 = icmp eq i32 %32, 0
  br i1 %33, label %43, label %34

34:                                               ; preds = %31
  %35 = load i32, ptr %10, align 4, !tbaa !4
  %36 = icmp eq i32 %35, 1
  br i1 %36, label %43, label %37

37:                                               ; preds = %34
  %38 = load i32, ptr %10, align 4, !tbaa !4
  %39 = icmp eq i32 %38, 18
  br i1 %39, label %43, label %40

40:                                               ; preds = %37
  %41 = load i32, ptr %10, align 4, !tbaa !4
  %42 = icmp eq i32 %41, 50
  br i1 %42, label %43, label %44

43:                                               ; preds = %40, %37, %34, %31
  store i32 1, ptr %6, align 4
  store i32 1, ptr %13, align 4
  br label %59

44:                                               ; preds = %40
  %45 = load i32, ptr %10, align 4, !tbaa !4
  %46 = icmp sgt i32 %45, 18
  br i1 %46, label %47, label %51

47:                                               ; preds = %44
  %48 = load i32, ptr %10, align 4, !tbaa !4
  %49 = icmp slt i32 %48, 50
  br i1 %49, label %50, label %51

50:                                               ; preds = %47
  store i32 0, ptr %6, align 4
  store i32 1, ptr %13, align 4
  br label %59

51:                                               ; preds = %47, %44
  %52 = load i32, ptr %7, align 4, !tbaa !4
  %53 = load i32, ptr %8, align 4, !tbaa !4
  %54 = load i32, ptr %10, align 4, !tbaa !4
  %55 = call i32 @ff_vvc_nscale_derive(i32 noundef %52, i32 noundef %53, i32 noundef %54)
  store i32 %55, ptr %12, align 4, !tbaa !4
  %56 = load i32, ptr %12, align 4, !tbaa !4
  %57 = icmp sge i32 %56, 0
  %58 = zext i1 %57 to i32
  store i32 %58, ptr %6, align 4
  store i32 1, ptr %13, align 4
  br label %59

59:                                               ; preds = %51, %50, %43
  call void @llvm.lifetime.end.p0(i64 4, ptr %12) #6
  br label %61

60:                                               ; preds = %28, %25, %22, %19
  store i32 0, ptr %6, align 4
  br label %61

61:                                               ; preds = %60, %59
  %62 = load i32, ptr %6, align 4
  ret i32 %62
}