; Function Attrs: nounwind uwtable
define range(i32 0, 2) i32 @ff_vvc_need_pdpc(i32 noundef %0, i32 noundef %1, i8 noundef zeroext %2, i32 noundef %3, i32 noundef %4) local_unnamed_addr #1 {
  %6 = icmp slt i32 %3, 81
  br i1 %6, label %8, label %7

7:                                                ; preds = %5
  tail call void (ptr, i32, ptr, ...) @av_log(ptr noundef null, i32 noundef 0, ptr noundef nonnull @.str, ptr noundef nonnull @.str.3, ptr noundef nonnull @.str.2, i32 noundef 63) #8
  tail call void @abort() #9
  unreachable

8:                                                ; preds = %5
  %9 = icmp slt i32 %0, 4
  %10 = icmp slt i32 %1, 4
  %or.cond.not31 = or i1 %9, %10
  %11 = icmp ne i32 %4, 0
  %or.cond3 = or i1 %or.cond.not31, %11
  %12 = icmp ne i8 %2, 0
  %or.cond5 = or i1 %12, %or.cond3
  br i1 %or.cond5, label %20, label %13

13:                                               ; preds = %8
  switch i32 %3, label %14 [
    i32 50, label %20
    i32 18, label %20
    i32 1, label %20
    i32 0, label %20
  ]

14:                                               ; preds = %13
  %15 = add i32 %3, -19
  %or.cond13 = icmp ult i32 %15, 31
  br i1 %or.cond13, label %20, label %16

16:                                               ; preds = %14
  %17 = tail call i32 @ff_vvc_nscale_derive(i32 noundef %0, i32 noundef %1, i32 noundef %3)
  %18 = icmp sgt i32 %17, -1
  %19 = zext i1 %18 to i32
  br label %20

20:                                               ; preds = %8, %16, %13, %13, %13, %13, %14
  %.1 = phi i32 [ %19, %16 ], [ 1, %13 ], [ 1, %13 ], [ 1, %13 ], [ 1, %13 ], [ 0, %14 ], [ 0, %8 ]
  ret i32 %.1
}